; Function Attrs: mustprogress uwtable
define void @_ZNK21PathSelectionDelegate12setModelDataEP7QWidgetP18QAbstractItemModelRK11QModelIndex(ptr noundef nonnull align 8 dereferenceable(16) %0, ptr noundef %1, ptr noundef %2, ptr noundef nonnull align 8 dereferenceable(24) %3) unnamed_addr #0 align 2 personality ptr @__gxx_personality_v0 {
  %5 = alloca %class.QVariant, align 8
  %6 = alloca %class.QString, align 8
  %7 = load i32, ptr %3, align 8
  %8 = icmp sgt i32 %7, -1
  %9 = getelementptr inbounds i8, ptr %3, i64 4
  %10 = load i32, ptr %9, align 4
  %11 = icmp sgt i32 %10, -1
  %or.cond.i = select i1 %8, i1 %11, i1 false
  %12 = getelementptr inbounds i8, ptr %3, i64 16
  %13 = load ptr, ptr %12, align 8
  %14 = icmp ne ptr %13, null
  %or.cond = select i1 %or.cond.i, i1 %14, i1 false
  br i1 %or.cond, label %15, label %_ZNK11QModelIndex7isValidEv.exit.thread

15:                                               ; preds = %4
  %16 = tail call noundef ptr @_ZNK11QMetaObject4castEPK7QObject(ptr noundef nonnull align 8 dereferenceable(56) @_ZN17PathSelectionEdit16staticMetaObjectE, ptr noundef %1)
  %.not = icmp eq ptr %16, null
  br i1 %.not, label %_ZNK11QModelIndex7isValidEv.exit.thread, label %17

17:                                               ; preds = %15
  %18 = tail call noundef ptr @_ZNK11QMetaObject4castEPK7QObject(ptr noundef nonnull align 8 dereferenceable(56) @_ZN17PathSelectionEdit16staticMetaObjectE, ptr noundef %1)
  call void @_ZNK17PathSelectionEdit4pathEv(ptr dead_on_unwind nonnull writable sret(%class.QString) align 8 %6, ptr noundef nonnull align 8 dereferenceable(112) %18)
  invoke void @_ZN8QVariantC1ERK7QString(ptr noundef nonnull align 8 dereferenceable(32) %5, ptr noundef nonnull align 8 dereferenceable(24) %6)
          to label %19 unwind label %29

19:                                               ; preds = %17
  %20 = load ptr, ptr %2, align 8
  %21 = getelementptr inbounds i8, ptr %20, i64 152
  %22 = load ptr, ptr %21, align 8
  %23 = invoke noundef zeroext i1 %22(ptr noundef nonnull align 8 dereferenceable(16) %2, ptr noundef nonnull align 8 dereferenceable(24) %3, ptr noundef nonnull align 8 dereferenceable(32) %5, i32 noundef 2)
          to label %24 unwind label %31

24:                                               ; preds = %19
  call void @_ZN8QVariantD1Ev(ptr noundef nonnull align 8 dereferenceable(32) %5) #9
  %25 = load ptr, ptr %6, align 8
  %.not.i.i.i = icmp eq ptr %25, null
  br i1 %.not.i.i.i, label %_ZN7QStringD2Ev.exit, label %_ZN17QArrayDataPointerIDsE5derefEv.exit.i.i

_ZN17QArrayDataPointerIDsE5derefEv.exit.i.i:      ; preds = %24
  %26 = atomicrmw sub ptr %25, i32 1 seq_cst, align 4
  %.not.i.i = icmp eq i32 %26, 1
  br i1 %.not.i.i, label %27, label %_ZN7QStringD2Ev.exit

27:                                               ; preds = %_ZN17QArrayDataPointerIDsE5derefEv.exit.i.i
  %28 = load ptr, ptr %6, align 8
  call void @_ZN10QArrayData10deallocateEPS_xx(ptr noundef %28, i64 noundef 2, i64 noundef 8) #9
  br label %_ZN7QStringD2Ev.exit

29:                                               ; preds = %17
  %30 = landingpad { ptr, i32 }
          cleanup
  br label %33

31:                                               ; preds = %19
  %32 = landingpad { ptr, i32 }
          cleanup
  call void @_ZN8QVariantD1Ev(ptr noundef nonnull align 8 dereferenceable(32) %5) #9
  br label %33

33:                                               ; preds = %31, %29
  %.pn = phi { ptr, i32 } [ %32, %31 ], [ %30, %29 ]
  %34 = load ptr, ptr %6, align 8
  %.not.i.i.i13 = icmp eq ptr %34, null
  br i1 %.not.i.i.i13, label %_ZN7QStringD2Ev.exit16, label %_ZN17QArrayDataPointerIDsE5derefEv.exit.i.i14

_ZN17QArrayDataPointerIDsE5derefEv.exit.i.i14:    ; preds = %33
  %35 = atomicrmw sub ptr %34, i32 1 seq_cst, align 4
  %.not.i.i15 = icmp eq i32 %35, 1
  br i1 %.not.i.i15, label %36, label %_ZN7QStringD2Ev.exit16

36:                                               ; preds = %_ZN17QArrayDataPointerIDsE5derefEv.exit.i.i14
  %37 = load ptr, ptr %6, align 8
  call void @_ZN10QArrayData10deallocateEPS_xx(ptr noundef %37, i64 noundef 2, i64 noundef 8) #9
  br label %_ZN7QStringD2Ev.exit16

_ZN7QStringD2Ev.exit16:                           ; preds = %33, %_ZN17QArrayDataPointerIDsE5derefEv.exit.i.i14, %36
  resume { ptr, i32 } %.pn

_ZNK11QModelIndex7isValidEv.exit.thread:          ; preds = %4, %15
  tail call void @_ZNK19QStyledItemDelegate12setModelDataEP7QWidgetP18QAbstractItemModelRK11QModelIndex(ptr noundef nonnull align 8 dereferenceable(16) %0, ptr noundef %1, ptr noundef %2, ptr noundef nonnull align 8 dereferenceable(24) %3)
  br label %_ZN7QStringD2Ev.exit

_ZN7QStringD2Ev.exit:                             ; preds = %27, %_ZN17QArrayDataPointerIDsE5derefEv.exit.i.i, %24, %_ZNK11QModelIndex7isValidEv.exit.thread
  ret void
}